target datalayout = "e-m:e-p270:32:32-p271:32:32-p272:64:64-i64:64-i128:128-f80:128-n8:16:32:64-S128"
target triple = "x86_64-unknown-linux-gnu"

%struct.IDEBus = type { %struct.BusState, ptr, ptr, [2 x %struct.IDEState], ptr, i32, i32, ptr, i8, i8, ptr, i32, i8, i64, i32, %struct.PortioList, %struct.PortioList, ptr }
%struct.BusState = type { %struct.Object, ptr, ptr, ptr, i32, i8, i8, i32, %union.BusChildHead, %struct.BusStateEntry, %struct.ResettableState }
%struct.Object = type { ptr, ptr, ptr, i32, ptr }
%union.BusChildHead = type { %struct.QTailQLink }
%struct.QTailQLink = type { ptr, ptr }
%struct.BusStateEntry = type { ptr, ptr }
%struct.ResettableState = type { i32, i8, i8 }
%struct.IDEState = type { ptr, i8, i32, i32, i32, i32, i32, i32, i32, i64, i32, i32, [512 x i8], i32, [21 x i8], [41 x i8], i64, i8, i8, i32, i8, i8, i8, i8, i8, i8, i8, i8, i8, i8, i8, i8, i8, ptr, [9 x i8], %struct.unreported_events, i8, i8, i8, i8, i8, i32, i32, i32, i32, i32, i32, %struct.BlockAcctCookie, ptr, %struct.QEMUIOVector, %struct.anon.1, i64, i32, %struct.QEMUSGList, i32, ptr, ptr, ptr, ptr, i32, i32, i32, i8, ptr, i32, i8, i32, ptr, i32, i32, i8, i8, i32, i8, ptr, i32 }
%struct.unreported_events = type { i8, i8 }
%struct.BlockAcctCookie = type { i64, i64, i32 }
%struct.QEMUIOVector = type { ptr, i32, %union.anon }
%union.anon = type { %struct.anon }
%struct.anon = type { i32, %struct.iovec }
%struct.iovec = type { ptr, i64 }
%struct.anon.1 = type { ptr }
%struct.QEMUSGList = type { ptr, i32, i32, i64, ptr, ptr }
%struct.PortioList = type { ptr, ptr, ptr, i32, ptr, ptr, ptr, i8 }
%struct.DriveInfo = type { i32, i32, i32, i32, i8, i32, ptr, %union.anon.2 }
%union.anon.2 = type { %struct.QTailQLink }

@.str.1 = private unnamed_addr constant [7 x i8] c"ide-cd\00", align 1
@.str.2 = private unnamed_addr constant [7 x i8] c"ide-hd\00", align 1
@.str.3 = private unnamed_addr constant [5 x i8] c"unit\00", align 1
@.str.4 = private unnamed_addr constant [6 x i8] c"drive\00", align 1
@error_fatal = external global ptr, align 8

; Function Attrs: nounwind sspstrong uwtable
define dso_local ptr @ide_bus_create_drive(ptr noundef %bus, i32 noundef %unit, ptr noundef %drive) #0 {
entry:
  %bus.addr = alloca ptr, align 8
  %unit.addr = alloca i32, align 4
  %drive.addr = alloca ptr, align 8
  %dev = alloca ptr, align 8
  %tmp = alloca ptr, align 8
  %__mptr = alloca ptr, align 8
  %tmp4 = alloca ptr, align 8
  store ptr %bus, ptr %bus.addr, align 8
  store i32 %unit, ptr %unit.addr, align 4
  store ptr %drive, ptr %drive.addr, align 8
  %0 = load ptr, ptr %drive.addr, align 8
  %media_cd = getelementptr inbounds %struct.DriveInfo, ptr %0, i32 0, i32 5
  %1 = load i32, ptr %media_cd, align 4
  %tobool = icmp ne i32 %1, 0
  %cond = select i1 %tobool, ptr @.str.1, ptr @.str.2
  %call = call ptr @qdev_new(ptr noundef %cond)
  store ptr %call, ptr %dev, align 8
  %2 = load ptr, ptr %dev, align 8
  %3 = load i32, ptr %unit.addr, align 4
  call void @qdev_prop_set_uint32(ptr noundef %2, ptr noundef @.str.3, i32 noundef %3)
  %4 = load ptr, ptr %dev, align 8
  %5 = load ptr, ptr %drive.addr, align 8
  %call1 = call ptr @blk_by_legacy_dinfo(ptr noundef %5)
  %call2 = call zeroext i1 @qdev_prop_set_drive_err(ptr noundef %4, ptr noundef @.str.4, ptr noundef %call1, ptr noundef @error_fatal)
  %6 = load ptr, ptr %dev, align 8
  %7 = load ptr, ptr %bus.addr, align 8
  %qbus = getelementptr inbounds %struct.IDEBus, ptr %7, i32 0, i32 0
  %call3 = call zeroext i1 @qdev_realize_and_unref(ptr noundef %6, ptr noundef %qbus, ptr noundef @error_fatal)
  %8 = load ptr, ptr %dev, align 8
  store ptr %8, ptr %__mptr, align 8
  %9 = load ptr, ptr %__mptr, align 8
  %add.ptr = getelementptr i8, ptr %9, i64 0
  store ptr %add.ptr, ptr %tmp4, align 8
  %10 = load ptr, ptr %tmp4, align 8
  store ptr %10, ptr %tmp, align 8
  %11 = load ptr, ptr %tmp, align 8
  ret ptr %11
}