; Function Attrs: nounwind sspstrong uwtable
define dso_local noundef ptr @ide_bus_create_drive(ptr noundef %bus, i32 noundef %unit, ptr noundef %drive) local_unnamed_addr #0 {
entry:
  %media_cd = getelementptr inbounds nuw i8, ptr %drive, i64 20
  %0 = load i32, ptr %media_cd, align 4
  %tobool.not = icmp eq i32 %0, 0
  %cond = select i1 %tobool.not, ptr @.str.2, ptr @.str.1
  %call = tail call ptr @qdev_new(ptr noundef nonnull %cond) #6
  tail call void @qdev_prop_set_uint32(ptr noundef %call, ptr noundef nonnull @.str.3, i32 noundef %unit) #6
  %call1 = tail call ptr @blk_by_legacy_dinfo(ptr noundef %drive) #6
  %call2 = tail call zeroext i1 @qdev_prop_set_drive_err(ptr noundef %call, ptr noundef nonnull @.str.4, ptr noundef %call1, ptr noundef nonnull @error_fatal) #6
  %call3 = tail call zeroext i1 @qdev_realize_and_unref(ptr noundef %call, ptr noundef %bus, ptr noundef nonnull @error_fatal) #6
  ret ptr %call
}